; Function Attrs: nounwind uwtable
define ptr @l_Lean_Elab_Tactic_evalGeneralize(ptr noundef %0, ptr noundef %1, ptr noundef %2, ptr noundef %3, ptr noundef %4, ptr noundef %5, ptr noundef %6, ptr noundef %7, ptr noundef %8, ptr noundef %9) #0 {
  %11 = tail call ptr @l_Lean_Syntax_getArg(ptr noundef %0, ptr noundef nonnull inttoptr (i64 3 to ptr)) #4
  %12 = tail call ptr @l_Lean_Syntax_getSepArgs(ptr noundef %11) #4
  %13 = ptrtoint ptr %11 to i64
  %14 = and i64 %13, 1
  %.not = icmp eq i64 %14, 0
  br i1 %.not, label %15, label %lean_dec.exit

15:                                               ; preds = %10
  %16 = load i32, ptr %11, align 4, !tbaa !4
  %17 = icmp sgt i32 %16, 1
  br i1 %17, label %18, label %20, !prof !11

18:                                               ; preds = %15
  %19 = add nsw i32 %16, -1
  store i32 %19, ptr %11, align 4, !tbaa !4
  br label %lean_dec.exit

20:                                               ; preds = %15
  %.not.i = icmp eq i32 %16, 0
  br i1 %.not.i, label %lean_dec.exit, label %21

21:                                               ; preds = %20
  tail call void @lean_dec_ref_cold(ptr noundef nonnull %11) #4
  br label %lean_dec.exit

lean_dec.exit:                                    ; preds = %21, %20, %18, %10
  %22 = getelementptr i8, ptr %12, i64 8
  %.val = load i64, ptr %22, align 8, !tbaa !13
  %23 = load ptr, ptr @l_Lean_Elab_Tactic_evalGeneralize___closed__2, align 8, !tbaa !9
  tail call void @lean_inc_heartbeat() #4
  %24 = tail call noalias ptr @mi_malloc_small(i64 noundef 16) #4
  %25 = icmp eq ptr %24, null
  br i1 %25, label %26, label %lean_box_usize.exit

26:                                               ; preds = %lean_dec.exit
  tail call void @lean_internal_panic_out_of_memory() #5
  unreachable

lean_box_usize.exit:                              ; preds = %lean_dec.exit
  %27 = getelementptr inbounds nuw i8, ptr %24, i64 4
  store i32 1, ptr %24, align 4, !tbaa !4
  store i32 16, ptr %27, align 4
  %28 = getelementptr inbounds nuw i8, ptr %24, i64 8
  store i64 %.val, ptr %28, align 8, !tbaa !13
  %29 = load ptr, ptr @l_Lean_Elab_Tactic_evalGeneralize___boxed__const__1, align 8, !tbaa !9
  tail call void @lean_inc_heartbeat() #4
  %30 = tail call noalias ptr @mi_malloc_small(i64 noundef 80) #4
  %31 = icmp eq ptr %30, null
  br i1 %31, label %32, label %lean_alloc_closure.exit

32:                                               ; preds = %lean_box_usize.exit
  tail call void @lean_internal_panic_out_of_memory() #5
  unreachable

lean_alloc_closure.exit:                          ; preds = %lean_box_usize.exit
  %33 = getelementptr inbounds nuw i8, ptr %30, i64 4
  store i32 1, ptr %30, align 4, !tbaa !4
  store i32 -184549296, ptr %33, align 4
  %34 = getelementptr inbounds nuw i8, ptr %30, i64 8
  store ptr @l_Lean_Elab_Tactic_evalGeneralize___lambda__4___boxed, ptr %34, align 8, !tbaa !9
  %35 = getelementptr inbounds nuw i8, ptr %30, i64 16
  store i16 16, ptr %35, align 8, !tbaa !15
  %36 = getelementptr inbounds nuw i8, ptr %30, i64 18
  store i16 7, ptr %36, align 2, !tbaa !15
  %37 = getelementptr inbounds nuw i8, ptr %30, i64 24
  store ptr inttoptr (i64 1 to ptr), ptr %37, align 8, !tbaa !9
  %38 = getelementptr inbounds nuw i8, ptr %30, i64 32
  store ptr %12, ptr %38, align 8, !tbaa !9
  %39 = getelementptr inbounds nuw i8, ptr %30, i64 40
  store ptr %24, ptr %39, align 8, !tbaa !9
  %40 = getelementptr inbounds nuw i8, ptr %30, i64 48
  store ptr %29, ptr %40, align 8, !tbaa !9
  %41 = getelementptr inbounds nuw i8, ptr %30, i64 56
  store ptr %23, ptr %41, align 8, !tbaa !9
  %42 = getelementptr inbounds nuw i8, ptr %30, i64 64
  store ptr inttoptr (i64 1 to ptr), ptr %42, align 8, !tbaa !9
  %43 = getelementptr inbounds nuw i8, ptr %30, i64 72
  store ptr %0, ptr %43, align 8, !tbaa !9
  %44 = tail call ptr @l_Lean_Elab_Tactic_withMainContext___rarg(ptr noundef nonnull %30, ptr noundef %1, ptr noundef %2, ptr noundef %3, ptr noundef %4, ptr noundef %5, ptr noundef %6, ptr noundef %7, ptr noundef %8, ptr noundef %9) #4
  ret ptr %44
}